; Function Attrs: mustprogress uwtable
define void @Z3_enable_concurrent_dec_ref(ptr noundef %0) local_unnamed_addr #3 personality ptr @__gxx_personality_v0 {
  %2 = atomicrmw xchg ptr @g_z3_log_enabled, i8 0 seq_cst, align 1
  %3 = trunc i8 %2 to i1
  br i1 %3, label %4, label %9

4:                                                ; preds = %1
  invoke void @_Z32log_Z3_enable_concurrent_dec_refP11_Z3_context(ptr noundef %0)
          to label %11 unwind label %_ZN10z3_log_ctxD2Ev.exit

_ZN10z3_log_ctxD2Ev.exit:                         ; preds = %4
  %5 = landingpad { ptr, i32 }
          cleanup
          catch ptr @_ZTI12z3_exception
  %6 = extractvalue { ptr, i32 } %5, 1
  store atomic i8 1, ptr @g_z3_log_enabled seq_cst, align 1
  %7 = tail call i32 @llvm.eh.typeid.for.p0(ptr nonnull @_ZTI12z3_exception) #28
  %8 = icmp eq i32 %6, %7
  br i1 %8, label %13, label %19

9:                                                ; preds = %1
  %10 = getelementptr inbounds nuw i8, ptr %0, i64 225
  store i8 1, ptr %10, align 1, !tbaa !28
  br label %_ZN10z3_log_ctxD2Ev.exit9

11:                                               ; preds = %4
  %12 = getelementptr inbounds nuw i8, ptr %0, i64 225
  store i8 1, ptr %12, align 1, !tbaa !28
  store atomic i8 1, ptr @g_z3_log_enabled seq_cst, align 1
  br label %_ZN10z3_log_ctxD2Ev.exit9

13:                                               ; preds = %_ZN10z3_log_ctxD2Ev.exit
  %14 = extractvalue { ptr, i32 } %5, 0
  %15 = tail call ptr @__cxa_begin_catch(ptr %14) #28
  invoke void @_ZN3api7context16handle_exceptionER12z3_exception(ptr noundef nonnull align 8 dereferenceable(3056) %0, ptr noundef nonnull align 8 dereferenceable(8) %15)
          to label %16 unwind label %17

16:                                               ; preds = %13
  tail call void @__cxa_end_catch()
  br label %_ZN10z3_log_ctxD2Ev.exit9

17:                                               ; preds = %13
  %18 = landingpad { ptr, i32 }
          cleanup
  invoke void @__cxa_end_catch()
          to label %19 unwind label %20

_ZN10z3_log_ctxD2Ev.exit9:                        ; preds = %11, %9, %16
  ret void

19:                                               ; preds = %17, %_ZN10z3_log_ctxD2Ev.exit
  %.merged = phi { ptr, i32 } [ %5, %_ZN10z3_log_ctxD2Ev.exit ], [ %18, %17 ]
  resume { ptr, i32 } %.merged

20:                                               ; preds = %17
  %21 = landingpad { ptr, i32 }
          catch ptr null
  %22 = extractvalue { ptr, i32 } %21, 0
  tail call void @__clang_call_terminate(ptr %22) #32
  unreachable
}